; Function Attrs: mustprogress uwtable
define void @_ZN15FieldFilterEdit11clearFilterEv(ptr noundef nonnull align 8 dereferenceable(216) %0) local_unnamed_addr #2 align 2 personality ptr @__gxx_personality_v0 {
_ZN7QStringC2ERKS_.exit:
  %1 = alloca %class.QString, align 8
  tail call void @_ZN9QLineEdit5clearEv(ptr noundef nonnull align 8 dereferenceable(40) %0)
  call void @llvm.memset.p0.i64(ptr noundef nonnull align 8 dereferenceable(24) %1, i8 0, i64 24, i1 false)
  invoke void @_ZN15FieldFilterEdit13filterPacketsE7QStringb(ptr noundef nonnull align 8 dereferenceable(216) %0, ptr noundef nonnull %1, i1 noundef zeroext true)
          to label %2 unwind label %7

2:                                                ; preds = %_ZN7QStringC2ERKS_.exit
  %3 = load ptr, ptr %1, align 8
  %.not.i.i.i2 = icmp eq ptr %3, null
  br i1 %.not.i.i.i2, label %_ZN7QStringD2Ev.exit6, label %_ZN17QArrayDataPointerIDsE5derefEv.exit.i.i

_ZN17QArrayDataPointerIDsE5derefEv.exit.i.i:      ; preds = %2
  %4 = atomicrmw sub ptr %3, i32 1 seq_cst, align 4
  %.not.i.i = icmp eq i32 %4, 1
  br i1 %.not.i.i, label %5, label %_ZN7QStringD2Ev.exit6

5:                                                ; preds = %_ZN17QArrayDataPointerIDsE5derefEv.exit.i.i
  %6 = load ptr, ptr %1, align 8
  call void @_ZN10QArrayData10deallocateEPS_xx(ptr noundef %6, i64 noundef 2, i64 noundef 8) #15
  br label %_ZN7QStringD2Ev.exit6

_ZN7QStringD2Ev.exit6:                            ; preds = %5, %_ZN17QArrayDataPointerIDsE5derefEv.exit.i.i, %2
  ret void

7:                                                ; preds = %_ZN7QStringC2ERKS_.exit
  %8 = landingpad { ptr, i32 }
          cleanup
  %9 = load ptr, ptr %1, align 8
  %.not.i.i.i7 = icmp eq ptr %9, null
  br i1 %.not.i.i.i7, label %_ZN7QStringD2Ev.exit14, label %_ZN17QArrayDataPointerIDsE5derefEv.exit.i.i8

_ZN17QArrayDataPointerIDsE5derefEv.exit.i.i8:     ; preds = %7
  %10 = atomicrmw sub ptr %9, i32 1 seq_cst, align 4
  %.not.i.i9 = icmp eq i32 %10, 1
  br i1 %.not.i.i9, label %11, label %_ZN7QStringD2Ev.exit14

11:                                               ; preds = %_ZN17QArrayDataPointerIDsE5derefEv.exit.i.i8
  %12 = load ptr, ptr %1, align 8
  call void @_ZN10QArrayData10deallocateEPS_xx(ptr noundef %12, i64 noundef 2, i64 noundef 8) #15
  br label %_ZN7QStringD2Ev.exit14

_ZN7QStringD2Ev.exit14:                           ; preds = %11, %_ZN17QArrayDataPointerIDsE5derefEv.exit.i.i8, %7
  resume { ptr, i32 } %8
}